; Function Attrs: mustprogress nofree norecurse nosync nounwind willreturn memory(read, inaccessiblemem: none) uwtable
define { ptr, i32 } @_ZNK10OpenSubdiv6v3_6_03Far10PatchTable18GetPatchFVarValuesEiii(ptr nocapture noundef nonnull readonly align 8 dereferenceable(273) %0, i32 noundef %1, i32 noundef %2, i32 noundef %3) local_unnamed_addr #6 align 2 {
  %5 = getelementptr inbounds nuw i8, ptr %0, i64 8
  %6 = sext i32 %1 to i64
  %7 = load ptr, ptr %5, align 8
  %8 = getelementptr inbounds %"struct.OpenSubdiv::v3_6_0::Far::PatchTable::PatchArray", ptr %7, i64 %6, i32 3
  %9 = load i32, ptr %8, align 4
  %10 = add nsw i32 %9, %2
  %11 = getelementptr inbounds nuw i8, ptr %0, i64 176
  %12 = sext i32 %3 to i64
  %13 = load ptr, ptr %11, align 8
  %14 = getelementptr inbounds %"struct.OpenSubdiv::v3_6_0::Far::PatchTable::FVarPatchChannel", ptr %13, i64 %12
  %15 = getelementptr inbounds nuw i8, ptr %14, i64 40
  %16 = sext i32 %10 to i64
  %17 = load ptr, ptr %15, align 8
  %18 = getelementptr inbounds %"struct.OpenSubdiv::v3_6_0::Far::PatchParam", ptr %17, i64 %16
  %19 = load i64, ptr %18, align 4
  %20 = and i64 %19, 137438953472
  %.not.i = icmp eq i64 %20, 0
  br i1 %.not.i, label %25, label %21

21:                                               ; preds = %4
  %22 = getelementptr inbounds nuw i8, ptr %14, i64 4
  %23 = load i32, ptr %22, align 4
  %switch.tableidx = add i32 %23, -1
  %24 = icmp ult i32 %switch.tableidx, 10
  br i1 %24, label %switch.lookup, label %_ZNK10OpenSubdiv6v3_6_03Far10PatchTable18getPatchFVarValuesEii.exit

25:                                               ; preds = %4
  %26 = getelementptr inbounds nuw i8, ptr %14, i64 8
  %27 = load i32, ptr %26, align 4
  %switch.tableidx6 = add i32 %27, -1
  %28 = icmp ult i32 %switch.tableidx6, 10
  br i1 %28, label %switch.lookup5, label %_ZNK10OpenSubdiv6v3_6_03Far10PatchTable18getPatchFVarValuesEii.exit

switch.lookup:                                    ; preds = %21
  %29 = zext nneg i32 %switch.tableidx to i64
  %switch.gep = getelementptr inbounds [10 x i32], ptr @switch.table._ZNK10OpenSubdiv6v3_6_03Far10PatchTable18GetPatchFVarValuesEiii.5, i64 0, i64 %29
  br label %_ZNK10OpenSubdiv6v3_6_03Far10PatchTable18getPatchFVarValuesEii.exit.sink.split

switch.lookup5:                                   ; preds = %25
  %30 = zext nneg i32 %switch.tableidx6 to i64
  %switch.gep7 = getelementptr inbounds [10 x i32], ptr @switch.table._ZNK10OpenSubdiv6v3_6_03Far10PatchTable18GetPatchFVarValuesEiii.5, i64 0, i64 %30
  br label %_ZNK10OpenSubdiv6v3_6_03Far10PatchTable18getPatchFVarValuesEii.exit.sink.split

_ZNK10OpenSubdiv6v3_6_03Far10PatchTable18getPatchFVarValuesEii.exit.sink.split: ; preds = %switch.lookup, %switch.lookup5
  %switch.gep7.sink = phi ptr [ %switch.gep7, %switch.lookup5 ], [ %switch.gep, %switch.lookup ]
  %switch.load8 = load i32, ptr %switch.gep7.sink, align 4
  br label %_ZNK10OpenSubdiv6v3_6_03Far10PatchTable18getPatchFVarValuesEii.exit

_ZNK10OpenSubdiv6v3_6_03Far10PatchTable18getPatchFVarValuesEii.exit: ; preds = %_ZNK10OpenSubdiv6v3_6_03Far10PatchTable18getPatchFVarValuesEii.exit.sink.split, %25, %21
  %31 = phi i32 [ -1, %21 ], [ -1, %25 ], [ %switch.load8, %_ZNK10OpenSubdiv6v3_6_03Far10PatchTable18getPatchFVarValuesEii.exit.sink.split ]
  %32 = getelementptr inbounds nuw i8, ptr %14, i64 16
  %33 = getelementptr inbounds nuw i8, ptr %14, i64 12
  %34 = load i32, ptr %33, align 4
  %35 = mul nsw i32 %34, %10
  %36 = sext i32 %35 to i64
  %37 = load ptr, ptr %32, align 8
  %38 = getelementptr inbounds i32, ptr %37, i64 %36
  %.fca.0.insert.i = insertvalue { ptr, i32 } poison, ptr %38, 0
  %.fca.1.insert.i = insertvalue { ptr, i32 } %.fca.0.insert.i, i32 %31, 1
  ret { ptr, i32 } %.fca.1.insert.i
}